target datalayout = "e-m:e-p270:32:32-p271:32:32-p272:64:64-i64:64-i128:128-f80:128-n8:16:32:64-S128"
target triple = "x86_64-pc-linux-gnu"

@Truth6 = internal global [6 x i64] [i64 -6148914691236517206, i64 -3689348814741910324, i64 -1085102592571150096, i64 -71777214294589696, i64 -281470681808896, i64 -4294967296], align 16

; Function Attrs: inlinehint nounwind uwtable
define internal i32 @If_Dec6SuppSize(i64 noundef %0) #3 {
  %2 = alloca i64, align 8
  %3 = alloca i32, align 4
  %4 = alloca i32, align 4
  store i64 %0, ptr %2, align 8, !tbaa !3
  call void @llvm.lifetime.start.p0(i64 4, ptr %3) #7
  call void @llvm.lifetime.start.p0(i64 4, ptr %4) #7
  store i32 0, ptr %4, align 4, !tbaa !7
  store i32 0, ptr %3, align 4, !tbaa !7
  br label %5

5:                                                ; preds = %20, %1
  %6 = load i32, ptr %3, align 4, !tbaa !7
  %7 = icmp slt i32 %6, 6
  br i1 %7, label %8, label %23

8:                                                ; preds = %5
  %9 = load i64, ptr %2, align 8, !tbaa !3
  %10 = load i32, ptr %3, align 4, !tbaa !7
  %11 = call i64 @If_Dec6Cofactor(i64 noundef %9, i32 noundef %10, i32 noundef 0)
  %12 = load i64, ptr %2, align 8, !tbaa !3
  %13 = load i32, ptr %3, align 4, !tbaa !7
  %14 = call i64 @If_Dec6Cofactor(i64 noundef %12, i32 noundef %13, i32 noundef 1)
  %15 = icmp ne i64 %11, %14
  br i1 %15, label %16, label %19

16:                                               ; preds = %8
  %17 = load i32, ptr %4, align 4, !tbaa !7
  %18 = add nsw i32 %17, 1
  store i32 %18, ptr %4, align 4, !tbaa !7
  br label %19

19:                                               ; preds = %16, %8
  br label %20

20:                                               ; preds = %19
  %21 = load i32, ptr %3, align 4, !tbaa !7
  %22 = add nsw i32 %21, 1
  store i32 %22, ptr %3, align 4, !tbaa !7
  br label %5, !llvm.loop !55

23:                                               ; preds = %5
  %24 = load i32, ptr %4, align 4, !tbaa !7
  call void @llvm.lifetime.end.p0(i64 4, ptr %4) #7
  call void @llvm.lifetime.end.p0(i64 4, ptr %3) #7
  ret i32 %24
}

; Function Attrs: inlinehint nounwind uwtable
define internal i64 @If_Dec6Cofactor(i64 noundef %0, i32 noundef %1, i32 noundef %2) #3 {
  %4 = alloca i64, align 8
  %5 = alloca i64, align 8
  %6 = alloca i32, align 4
  %7 = alloca i32, align 4
  store i64 %0, ptr %5, align 8, !tbaa !3
  store i32 %1, ptr %6, align 4, !tbaa !7
  store i32 %2, ptr %7, align 4, !tbaa !7
  %8 = load i32, ptr %7, align 4, !tbaa !7
  %9 = icmp ne i32 %8, 0
  br i1 %9, label %10, label %28

10:                                               ; preds = %3
  %11 = load i64, ptr %5, align 8, !tbaa !3
  %12 = load i32, ptr %6, align 4, !tbaa !7
  %13 = sext i32 %12 to i64
  %14 = getelementptr inbounds [6 x i64], ptr @Truth6, i64 0, i64 %13
  %15 = load i64, ptr %14, align 8, !tbaa !3
  %16 = and i64 %11, %15
  %17 = load i64, ptr %5, align 8, !tbaa !3
  %18 = load i32, ptr %6, align 4, !tbaa !7
  %19 = sext i32 %18 to i64
  %20 = getelementptr inbounds [6 x i64], ptr @Truth6, i64 0, i64 %19
  %21 = load i64, ptr %20, align 8, !tbaa !3
  %22 = and i64 %17, %21
  %23 = load i32, ptr %6, align 4, !tbaa !7
  %24 = shl i32 1, %23
  %25 = zext i32 %24 to i64
  %26 = lshr i64 %22, %25
  %27 = or i64 %16, %26
  store i64 %27, ptr %4, align 8
  br label %48

28:                                               ; preds = %3
  %29 = load i64, ptr %5, align 8, !tbaa !3
  %30 = load i32, ptr %6, align 4, !tbaa !7
  %31 = sext i32 %30 to i64
  %32 = getelementptr inbounds [6 x i64], ptr @Truth6, i64 0, i64 %31
  %33 = load i64, ptr %32, align 8, !tbaa !3
  %34 = xor i64 %33, -1
  %35 = and i64 %29, %34
  %36 = load i64, ptr %5, align 8, !tbaa !3
  %37 = load i32, ptr %6, align 4, !tbaa !7
  %38 = sext i32 %37 to i64
  %39 = getelementptr inbounds [6 x i64], ptr @Truth6, i64 0, i64 %38
  %40 = load i64, ptr %39, align 8, !tbaa !3
  %41 = xor i64 %40, -1
  %42 = and i64 %36, %41
  %43 = load i32, ptr %6, align 4, !tbaa !7
  %44 = shl i32 1, %43
  %45 = zext i32 %44 to i64
  %46 = shl i64 %42, %45
  %47 = or i64 %35, %46
  store i64 %47, ptr %4, align 8
  br label %48

48:                                               ; preds = %28, %10
  %49 = load i64, ptr %4, align 8
  ret i64 %49
}

; Function Attrs: nounwind uwtable
define i32 @If_Dec6PickBestMux(i64 noundef %0, ptr noundef %1) #0 {
  %3 = alloca i64, align 8
  %4 = alloca ptr, align 8
  %5 = alloca i32, align 4
  %6 = alloca i32, align 4
  %7 = alloca i32, align 4
  %8 = alloca i32, align 4
  %9 = alloca i32, align 4
  store i64 %0, ptr %3, align 8, !tbaa !3
  store ptr %1, ptr %4, align 8, !tbaa !15
  call void @llvm.lifetime.start.p0(i64 4, ptr %5) #7
  call void @llvm.lifetime.start.p0(i64 4, ptr %6) #7
  store i32 -1, ptr %6, align 4, !tbaa !7
  call void @llvm.lifetime.start.p0(i64 4, ptr %7) #7
  call void @llvm.lifetime.start.p0(i64 4, ptr %8) #7
  call void @llvm.lifetime.start.p0(i64 4, ptr %9) #7
  store i32 1000, ptr %9, align 4, !tbaa !7
  store i32 0, ptr %5, align 4, !tbaa !7
  br label %10

10:                                               ; preds = %49, %2
  %11 = load i32, ptr %5, align 4, !tbaa !7
  %12 = icmp slt i32 %11, 6
  br i1 %12, label %13, label %52

13:                                               ; preds = %10
  %14 = load i64, ptr %3, align 8, !tbaa !3
  %15 = load i32, ptr %5, align 4, !tbaa !7
  %16 = call i64 @If_Dec6Cofactor(i64 noundef %14, i32 noundef %15, i32 noundef 0)
  %17 = call i32 @If_Dec6SuppSize(i64 noundef %16)
  store i32 %17, ptr %7, align 4, !tbaa !7
  %18 = load i64, ptr %3, align 8, !tbaa !3
  %19 = load i32, ptr %5, align 4, !tbaa !7
  %20 = call i64 @If_Dec6Cofactor(i64 noundef %18, i32 noundef %19, i32 noundef 1)
  %21 = call i32 @If_Dec6SuppSize(i64 noundef %20)
  store i32 %21, ptr %8, align 4, !tbaa !7
  %22 = load i32, ptr %7, align 4, !tbaa !7
  %23 = icmp slt i32 %22, 5
  br i1 %23, label %24, label %48

24:                                               ; preds = %13
  %25 = load i32, ptr %8, align 4, !tbaa !7
  %26 = icmp slt i32 %25, 5
  br i1 %26, label %27, label %48

27:                                               ; preds = %24
  %28 = load i32, ptr %9, align 4, !tbaa !7
  %29 = load i32, ptr %7, align 4, !tbaa !7
  %30 = load i32, ptr %8, align 4, !tbaa !7
  %31 = add nsw i32 %29, %30
  %32 = icmp sgt i32 %28, %31
  br i1 %32, label %33, label %48

33:                                               ; preds = %27
  %34 = load i32, ptr %7, align 4, !tbaa !7
  %35 = load i32, ptr %8, align 4, !tbaa !7
  %36 = add nsw i32 %34, %35
  store i32 %36, ptr %9, align 4, !tbaa !7
  %37 = load i32, ptr %5, align 4, !tbaa !7
  store i32 %37, ptr %6, align 4, !tbaa !7
  %38 = load i64, ptr %3, align 8, !tbaa !3
  %39 = load i32, ptr %5, align 4, !tbaa !7
  %40 = call i64 @If_Dec6Cofactor(i64 noundef %38, i32 noundef %39, i32 noundef 0)
  %41 = load ptr, ptr %4, align 8, !tbaa !15
  %42 = getelementptr inbounds i64, ptr %41, i64 0
  store i64 %40, ptr %42, align 8, !tbaa !3
  %43 = load i64, ptr %3, align 8, !tbaa !3
  %44 = load i32, ptr %5, align 4, !tbaa !7
  %45 = call i64 @If_Dec6Cofactor(i64 noundef %43, i32 noundef %44, i32 noundef 1)
  %46 = load ptr, ptr %4, align 8, !tbaa !15
  %47 = getelementptr inbounds i64, ptr %46, i64 1
  store i64 %45, ptr %47, align 8, !tbaa !3
  br label %48

48:                                               ; preds = %33, %27, %24, %13
  br label %49

49:                                               ; preds = %48
  %50 = load i32, ptr %5, align 4, !tbaa !7
  %51 = add nsw i32 %50, 1
  store i32 %51, ptr %5, align 4, !tbaa !7
  br label %10, !llvm.loop !54

52:                                               ; preds = %10
  %53 = load i32, ptr %6, align 4, !tbaa !7
  call void @llvm.lifetime.end.p0(i64 4, ptr %9) #7
  call void @llvm.lifetime.end.p0(i64 4, ptr %8) #7
  call void @llvm.lifetime.end.p0(i64 4, ptr %7) #7
  call void @llvm.lifetime.end.p0(i64 4, ptr %6) #7
  call void @llvm.lifetime.end.p0(i64 4, ptr %5) #7
  ret i32 %53
}