; Function Attrs: nofree norecurse nosync nounwind memory(argmem: write) uwtable
define i32 @If_Dec6PickBestMux(i64 noundef %0, ptr noundef writeonly captures(none) %1) local_unnamed_addr #7 {
  %3 = getelementptr inbounds nuw i8, ptr %1, i64 8
  br label %4

4:                                                ; preds = %2, %51
  %indvars.iv = phi i64 [ 0, %2 ], [ %indvars.iv.next, %51 ]
  %.036 = phi i32 [ 1000, %2 ], [ %.1, %51 ]
  %.02234 = phi i32 [ -1, %2 ], [ %.123, %51 ]
  %5 = getelementptr inbounds nuw [6 x i64], ptr @s_Truths6, i64 0, i64 %indvars.iv
  %6 = load i64, ptr %5, align 8, !tbaa !10
  %7 = xor i64 %6, -1
  %8 = and i64 %0, %7
  %9 = trunc nuw nsw i64 %indvars.iv to i32
  %10 = shl nuw nsw i32 1, %9
  %11 = zext nneg i32 %10 to i64
  %12 = shl i64 %8, %11
  %13 = or i64 %12, %8
  br label %14

14:                                               ; preds = %14, %4
  %indvars.iv.i = phi i64 [ 0, %4 ], [ %indvars.iv.next.i, %14 ]
  %.010.i = phi i32 [ 0, %4 ], [ %spec.select.i, %14 ]
  %15 = getelementptr inbounds nuw [6 x i64], ptr @s_Truths6, i64 0, i64 %indvars.iv.i
  %16 = load i64, ptr %15, align 8, !tbaa !10
  %17 = xor i64 %16, -1
  %18 = and i64 %13, %17
  %19 = trunc nuw nsw i64 %indvars.iv.i to i32
  %20 = shl nuw nsw i32 1, %19
  %21 = zext nneg i32 %20 to i64
  %22 = shl i64 %18, %21
  %23 = or i64 %22, %18
  %24 = and i64 %16, %13
  %25 = lshr i64 %24, %21
  %26 = or i64 %25, %24
  %.not.i = icmp ne i64 %23, %26
  %27 = zext i1 %.not.i to i32
  %spec.select.i = add nuw nsw i32 %.010.i, %27
  %indvars.iv.next.i = add nuw nsw i64 %indvars.iv.i, 1
  %exitcond.not.i = icmp eq i64 %indvars.iv.next.i, 6
  br i1 %exitcond.not.i, label %If_Dec6SuppSize.exit, label %14, !llvm.loop !49

If_Dec6SuppSize.exit:                             ; preds = %14
  %28 = and i64 %6, %0
  %29 = lshr i64 %28, %11
  %30 = or i64 %29, %28
  br label %31

31:                                               ; preds = %31, %If_Dec6SuppSize.exit
  %indvars.iv.i27 = phi i64 [ 0, %If_Dec6SuppSize.exit ], [ %indvars.iv.next.i31, %31 ]
  %.010.i28 = phi i32 [ 0, %If_Dec6SuppSize.exit ], [ %spec.select.i30, %31 ]
  %32 = getelementptr inbounds nuw [6 x i64], ptr @s_Truths6, i64 0, i64 %indvars.iv.i27
  %33 = load i64, ptr %32, align 8, !tbaa !10
  %34 = xor i64 %33, -1
  %35 = and i64 %30, %34
  %36 = trunc nuw nsw i64 %indvars.iv.i27 to i32
  %37 = shl nuw nsw i32 1, %36
  %38 = zext nneg i32 %37 to i64
  %39 = shl i64 %35, %38
  %40 = or i64 %39, %35
  %41 = and i64 %33, %30
  %42 = lshr i64 %41, %38
  %43 = or i64 %42, %41
  %.not.i29 = icmp ne i64 %40, %43
  %44 = zext i1 %.not.i29 to i32
  %spec.select.i30 = add nuw nsw i32 %.010.i28, %44
  %indvars.iv.next.i31 = add nuw nsw i64 %indvars.iv.i27, 1
  %exitcond.not.i32 = icmp eq i64 %indvars.iv.next.i31, 6
  br i1 %exitcond.not.i32, label %If_Dec6SuppSize.exit33, label %31, !llvm.loop !49

If_Dec6SuppSize.exit33:                           ; preds = %31
  %45 = icmp samesign ult i32 %spec.select.i, 5
  %46 = icmp samesign ult i32 %spec.select.i30, 5
  %or.cond = select i1 %45, i1 %46, i1 false
  br i1 %or.cond, label %47, label %51

47:                                               ; preds = %If_Dec6SuppSize.exit33
  %48 = add nuw nsw i32 %spec.select.i30, %spec.select.i
  %49 = icmp sgt i32 %.036, %48
  br i1 %49, label %50, label %51

50:                                               ; preds = %47
  store i64 %13, ptr %1, align 8, !tbaa !10
  store i64 %30, ptr %3, align 8, !tbaa !10
  br label %51

51:                                               ; preds = %If_Dec6SuppSize.exit33, %47, %50
  %.123 = phi i32 [ %9, %50 ], [ %.02234, %47 ], [ %.02234, %If_Dec6SuppSize.exit33 ]
  %.1 = phi i32 [ %48, %50 ], [ %.036, %47 ], [ %.036, %If_Dec6SuppSize.exit33 ]
  %indvars.iv.next = add nuw nsw i64 %indvars.iv, 1
  %exitcond.not = icmp eq i64 %indvars.iv.next, 6
  br i1 %exitcond.not, label %52, label %4, !llvm.loop !50

52:                                               ; preds = %51
  ret i32 %.123
}